; Function Attrs: mustprogress uwtable
define hidden void @_ZN4cvc58internal6theory2bv16TheoryBVRewriter16RewriteEagerAtomENS0_12NodeTemplateILb0EEEb(ptr noalias nocapture writeonly sret(%"struct.cvc5::internal::theory::RewriteResponse") align 8 %agg.result, ptr nocapture noundef readonly %node, i1 zeroext %prerewrite) #4 align 2 personality ptr @__gxx_personality_v0 {
entry:
  %resultNode = alloca %"class.cvc5::internal::NodeTemplate", align 8
  %agg.tmp = alloca %"class.cvc5::internal::NodeTemplate.0", align 8
  %agg.tmp1 = alloca %"class.cvc5::internal::NodeTemplate", align 8
  %0 = load ptr, ptr %node, align 8
  store ptr %0, ptr %agg.tmp, align 8
  call void @_ZN4cvc58internal6theory2bv21LinearRewriteStrategyINS2_11RewriteRuleILNS2_13RewriteRuleIdE73EEENS4_ILS5_0EEES7_S7_S7_S7_S7_S7_S7_S7_S7_S7_S7_S7_S7_S7_S7_S7_S7_S7_E5applyENS0_12NodeTemplateILb0EEE(ptr nonnull sret(%"class.cvc5::internal::NodeTemplate") align 8 %resultNode, ptr noundef nonnull %agg.tmp)
  %1 = load ptr, ptr %resultNode, align 8
  store ptr %1, ptr %agg.tmp1, align 8
  %bf.load.i.i = load i64, ptr %1, align 8
  %bf.lshr.i.i = lshr i64 %bf.load.i.i, 40
  %2 = trunc i64 %bf.lshr.i.i to i32
  %bf.cast.i.i = and i32 %2, 1048575
  %cmp.i.i = icmp ult i32 %bf.cast.i.i, 1048574
  br i1 %cmp.i.i, label %if.then.i.i, label %if.else.i.i

if.then.i.i:                                      ; preds = %entry
  %bf.value.i.i = add i64 %bf.load.i.i, 1099511627776
  %bf.shl.i.i = and i64 %bf.value.i.i, 1152920405095219200
  %bf.clear7.i.i = and i64 %bf.load.i.i, -1152920405095219201
  %bf.set.i.i = or disjoint i64 %bf.shl.i.i, %bf.clear7.i.i
  store i64 %bf.set.i.i, ptr %1, align 8
  br label %invoke.cont3

if.else.i.i:                                      ; preds = %entry
  %cmp12.i.i = icmp eq i32 %bf.cast.i.i, 1048574
  br i1 %cmp12.i.i, label %if.then13.i.i, label %invoke.cont3

if.then13.i.i:                                    ; preds = %if.else.i.i
  %bf.set23.i.i = or i64 %bf.load.i.i, 1152920405095219200
  store i64 %bf.set23.i.i, ptr %1, align 8
  invoke void @_ZN4cvc58internal4expr9NodeValue20markRefCountMaxedOutEv(ptr noundef nonnull align 8 dereferenceable(16) %1)
          to label %if.then13.i.i.invoke.cont3_crit_edge unwind label %lpad2

if.then13.i.i.invoke.cont3_crit_edge:             ; preds = %if.then13.i.i
  %bf.load.i.i.i.pre = load i64, ptr %1, align 8
  br label %invoke.cont3

invoke.cont3:                                     ; preds = %if.then13.i.i.invoke.cont3_crit_edge, %if.else.i.i, %if.then.i.i
  %bf.load.i.i.i = phi i64 [ %bf.load.i.i.i.pre, %if.then13.i.i.invoke.cont3_crit_edge ], [ %bf.load.i.i, %if.else.i.i ], [ %bf.set.i.i, %if.then.i.i ]
  store i32 0, ptr %agg.result, align 8
  %d_node.i = getelementptr inbounds i8, ptr %agg.result, i64 8
  store ptr %1, ptr %d_node.i, align 8
  %bf.lshr.i.i.i = lshr i64 %bf.load.i.i.i, 40
  %3 = trunc i64 %bf.lshr.i.i.i to i32
  %bf.cast.i.i.i = and i32 %3, 1048575
  %cmp.i.i.i = icmp ult i32 %bf.cast.i.i.i, 1048574
  br i1 %cmp.i.i.i, label %if.then.i.i.i, label %if.else.i.i.i

if.then.i.i.i:                                    ; preds = %invoke.cont3
  %bf.value.i.i.i = add i64 %bf.load.i.i.i, 1099511627776
  %bf.shl.i.i.i = and i64 %bf.value.i.i.i, 1152920405095219200
  %bf.clear7.i.i.i = and i64 %bf.load.i.i.i, -1152920405095219201
  %bf.set.i.i.i = or disjoint i64 %bf.shl.i.i.i, %bf.clear7.i.i.i
  store i64 %bf.set.i.i.i, ptr %1, align 8
  br label %invoke.cont5

if.else.i.i.i:                                    ; preds = %invoke.cont3
  %cmp12.i.i.i = icmp eq i32 %bf.cast.i.i.i, 1048574
  br i1 %cmp12.i.i.i, label %if.then13.i.i.i, label %invoke.cont5

if.then13.i.i.i:                                  ; preds = %if.else.i.i.i
  %bf.set23.i.i.i = or i64 %bf.load.i.i.i, 1152920405095219200
  store i64 %bf.set23.i.i.i, ptr %1, align 8
  invoke void @_ZN4cvc58internal4expr9NodeValue20markRefCountMaxedOutEv(ptr noundef nonnull align 8 dereferenceable(16) %1)
          to label %if.then13.i.i.i.invoke.cont5_crit_edge unwind label %lpad4

if.then13.i.i.i.invoke.cont5_crit_edge:           ; preds = %if.then13.i.i.i
  %bf.load.i.i4.pre = load i64, ptr %1, align 8
  br label %invoke.cont5

invoke.cont5:                                     ; preds = %if.then13.i.i.i.invoke.cont5_crit_edge, %if.else.i.i.i, %if.then.i.i.i
  %bf.load.i.i4 = phi i64 [ %bf.load.i.i4.pre, %if.then13.i.i.i.invoke.cont5_crit_edge ], [ %bf.load.i.i.i, %if.else.i.i.i ], [ %bf.set.i.i.i, %if.then.i.i.i ]
  %4 = and i64 %bf.load.i.i4, 1152920405095219200
  %cmp.not.i.i = icmp eq i64 %4, 1152920405095219200
  br i1 %cmp.not.i.i, label %_ZN4cvc58internal12NodeTemplateILb1EED2Ev.exit, label %if.then.i.i5

if.then.i.i5:                                     ; preds = %invoke.cont5
  %bf.value.i.i6 = add i64 %bf.load.i.i4, 1152920405095219200
  %bf.shl.i.i7 = and i64 %bf.value.i.i6, 1152920405095219200
  %bf.clear7.i.i8 = and i64 %bf.load.i.i4, -1152920405095219201
  %bf.set.i.i9 = or disjoint i64 %bf.shl.i.i7, %bf.clear7.i.i8
  store i64 %bf.set.i.i9, ptr %1, align 8
  %cmp12.i.i10 = icmp eq i64 %bf.shl.i.i7, 0
  br i1 %cmp12.i.i10, label %if.then13.i.i11, label %_ZN4cvc58internal12NodeTemplateILb1EED2Ev.exit

if.then13.i.i11:                                  ; preds = %if.then.i.i5
  invoke void @_ZN4cvc58internal4expr9NodeValue15markForDeletionEv(ptr noundef nonnull align 8 dereferenceable(16) %1)
          to label %_ZN4cvc58internal12NodeTemplateILb1EED2Ev.exit unwind label %terminate.lpad.i

terminate.lpad.i:                                 ; preds = %if.then13.i.i11
  %5 = landingpad { ptr, i32 }
          catch ptr null
  %6 = extractvalue { ptr, i32 } %5, 0
  call void @__clang_call_terminate(ptr %6) #19
  unreachable

_ZN4cvc58internal12NodeTemplateILb1EED2Ev.exit:   ; preds = %invoke.cont5, %if.then.i.i5, %if.then13.i.i11
  %7 = load ptr, ptr %resultNode, align 8
  %bf.load.i.i12 = load i64, ptr %7, align 8
  %8 = and i64 %bf.load.i.i12, 1152920405095219200
  %cmp.not.i.i13 = icmp eq i64 %8, 1152920405095219200
  br i1 %cmp.not.i.i13, label %_ZN4cvc58internal12NodeTemplateILb1EED2Ev.exit22, label %if.then.i.i14

if.then.i.i14:                                    ; preds = %_ZN4cvc58internal12NodeTemplateILb1EED2Ev.exit
  %bf.value.i.i15 = add i64 %bf.load.i.i12, 1152920405095219200
  %bf.shl.i.i16 = and i64 %bf.value.i.i15, 1152920405095219200
  %bf.clear7.i.i17 = and i64 %bf.load.i.i12, -1152920405095219201
  %bf.set.i.i18 = or disjoint i64 %bf.shl.i.i16, %bf.clear7.i.i17
  store i64 %bf.set.i.i18, ptr %7, align 8
  %cmp12.i.i19 = icmp eq i64 %bf.shl.i.i16, 0
  br i1 %cmp12.i.i19, label %if.then13.i.i20, label %_ZN4cvc58internal12NodeTemplateILb1EED2Ev.exit22

if.then13.i.i20:                                  ; preds = %if.then.i.i14
  invoke void @_ZN4cvc58internal4expr9NodeValue15markForDeletionEv(ptr noundef nonnull align 8 dereferenceable(16) %7)
          to label %_ZN4cvc58internal12NodeTemplateILb1EED2Ev.exit22 unwind label %terminate.lpad.i21

terminate.lpad.i21:                               ; preds = %if.then13.i.i20
  %9 = landingpad { ptr, i32 }
          catch ptr null
  %10 = extractvalue { ptr, i32 } %9, 0
  call void @__clang_call_terminate(ptr %10) #19
  unreachable

_ZN4cvc58internal12NodeTemplateILb1EED2Ev.exit22: ; preds = %_ZN4cvc58internal12NodeTemplateILb1EED2Ev.exit, %if.then.i.i14, %if.then13.i.i20
  ret void

lpad2:                                            ; preds = %if.then13.i.i
  %11 = landingpad { ptr, i32 }
          cleanup
  br label %ehcleanup

lpad4:                                            ; preds = %if.then13.i.i.i
  %12 = landingpad { ptr, i32 }
          cleanup
  call void @_ZN4cvc58internal12NodeTemplateILb1EED2Ev(ptr noundef nonnull align 8 dereferenceable(8) %agg.tmp1) #20
  br label %ehcleanup

ehcleanup:                                        ; preds = %lpad4, %lpad2
  %.pn = phi { ptr, i32 } [ %12, %lpad4 ], [ %11, %lpad2 ]
  call void @_ZN4cvc58internal12NodeTemplateILb1EED2Ev(ptr noundef nonnull align 8 dereferenceable(8) %resultNode) #20
  resume { ptr, i32 } %.pn
}